target datalayout = "e-m:e-p270:32:32-p271:32:32-p272:64:64-i64:64-i128:128-f80:128-n8:16:32:64-S128"
target triple = "x86_64-pc-linux-gnu"

%struct._object = type { %union.anon, ptr }
%union.anon = type { i64 }
%struct.fileio = type { %struct._object, i32, i8, i8, ptr, ptr, ptr }

; Function Attrs: nounwind uwtable
define internal ptr @fileio_get_closefd(ptr noundef %0, ptr noundef %1) #0 {
  %3 = alloca ptr, align 8
  %4 = alloca ptr, align 8
  %5 = alloca ptr, align 8
  store ptr %0, ptr %3, align 8, !tbaa !4
  store ptr %1, ptr %4, align 8, !tbaa !15
  call void @llvm.lifetime.start.p0(i64 8, ptr %5) #9
  %6 = load ptr, ptr %3, align 8, !tbaa !4
  store ptr %6, ptr %5, align 8, !tbaa !15
  %7 = load ptr, ptr %5, align 8, !tbaa !15
  %8 = getelementptr inbounds nuw %struct.fileio, ptr %7, i32 0, i32 2
  %9 = load i8, ptr %8, align 4
  %10 = lshr i8 %9, 6
  %11 = and i8 %10, 1
  %12 = zext i8 %11 to i32
  %13 = zext i32 %12 to i64
  %14 = call ptr @PyBool_FromLong(i64 noundef %13)
  call void @llvm.lifetime.end.p0(i64 8, ptr %5) #9
  ret ptr %14
}