; Function Attrs: nounwind uwtable
define internal ptr @fileio_get_closefd(ptr noundef readonly captures(none) %0, ptr readnone captures(none) %1) #1 {
  %3 = getelementptr inbounds nuw i8, ptr %0, i64 20
  %4 = load i8, ptr %3, align 4
  %5 = lshr i8 %4, 6
  %6 = and i8 %5, 1
  %7 = zext nneg i8 %6 to i64
  %8 = tail call ptr @PyBool_FromLong(i64 noundef %7) #10
  ret ptr %8
}